target datalayout = "e-m:e-p270:32:32-p271:32:32-p272:64:64-i64:64-i128:128-f80:128-n8:16:32:64-S128"
target triple = "x86_64-pc-linux-gnu"

%"class.boost::core::basic_string_view" = type { ptr, i64 }
%"struct.boost::urls::detail::url_impl" = type <{ ptr, [8 x i64], [7 x i64], i64, i64, [16 x i8], i16, [2 x i8], i32, i16, i8, [5 x i8] }>
%"class.boost::urls::detail::path_ref" = type { ptr, ptr, i64, i64, i64 }

; Function Attrs: mustprogress nounwind uwtable
define linkonce_odr hidden void @_ZN5boost4core17basic_string_viewIcEC2EPKcm(ptr noundef nonnull align 8 dereferenceable(16) %0, ptr noundef %1, i64 noundef %2) unnamed_addr #1 comdat align 2 {
  %4 = alloca ptr, align 8
  %5 = alloca ptr, align 8
  %6 = alloca i64, align 8
  store ptr %0, ptr %4, align 8, !tbaa !3
  store ptr %1, ptr %5, align 8, !tbaa !3
  store i64 %2, ptr %6, align 8, !tbaa !8
  %7 = load ptr, ptr %4, align 8
  %8 = getelementptr inbounds nuw %"class.boost::core::basic_string_view", ptr %7, i32 0, i32 0
  %9 = load ptr, ptr %5, align 8, !tbaa !3
  store ptr %9, ptr %8, align 8, !tbaa !37
  %10 = getelementptr inbounds nuw %"class.boost::core::basic_string_view", ptr %7, i32 0, i32 1
  %11 = load i64, ptr %6, align 8, !tbaa !8
  store i64 %11, ptr %10, align 8, !tbaa !20
  ret void
}

; Function Attrs: mustprogress nounwind uwtable
define noundef i64 @_ZNK5boost4urls6detail8url_impl3lenEi(ptr noundef nonnull align 8 dereferenceable(171) %0, i32 noundef %1) #1 align 2 {
  %3 = alloca ptr, align 8
  %4 = alloca i32, align 4
  store ptr %0, ptr %3, align 8, !tbaa !3
  store i32 %1, ptr %4, align 4, !tbaa !16
  %5 = load ptr, ptr %3, align 8
  %6 = load i32, ptr %4, align 4, !tbaa !16
  %7 = icmp eq i32 %6, 7
  br i1 %7, label %8, label %9

8:                                                ; preds = %2
  br label %16

9:                                                ; preds = %2
  %10 = load i32, ptr %4, align 4, !tbaa !16
  %11 = add nsw i32 %10, 1
  %12 = call noundef i64 @_ZNK5boost4urls6detail8url_impl6offsetEi(ptr noundef nonnull align 8 dereferenceable(171) %5, i32 noundef %11) #5
  %13 = load i32, ptr %4, align 4, !tbaa !16
  %14 = call noundef i64 @_ZNK5boost4urls6detail8url_impl6offsetEi(ptr noundef nonnull align 8 dereferenceable(171) %5, i32 noundef %13) #5
  %15 = sub i64 %12, %14
  br label %16

16:                                               ; preds = %9, %8
  %17 = phi i64 [ 0, %8 ], [ %15, %9 ]
  ret i64 %17
}

; Function Attrs: mustprogress nounwind uwtable
define noundef i64 @_ZNK5boost4urls6detail8url_impl6offsetEi(ptr noundef nonnull align 8 dereferenceable(171) %0, i32 noundef %1) #1 align 2 {
  %3 = alloca ptr, align 8
  %4 = alloca i32, align 4
  store ptr %0, ptr %3, align 8, !tbaa !3
  store i32 %1, ptr %4, align 4, !tbaa !16
  %5 = load ptr, ptr %3, align 8
  %6 = load i32, ptr %4, align 4, !tbaa !16
  %7 = icmp eq i32 %6, -1
  br i1 %7, label %8, label %9

8:                                                ; preds = %2
  br label %15

9:                                                ; preds = %2
  %10 = getelementptr inbounds nuw %"struct.boost::urls::detail::url_impl", ptr %5, i32 0, i32 1
  %11 = load i32, ptr %4, align 4, !tbaa !16
  %12 = sext i32 %11 to i64
  %13 = getelementptr inbounds [8 x i64], ptr %10, i64 0, i64 %12
  %14 = load i64, ptr %13, align 8, !tbaa !8
  br label %15

15:                                               ; preds = %9, %8
  %16 = phi i64 [ 0, %8 ], [ %14, %9 ]
  ret i64 %16
}

; Function Attrs: mustprogress nounwind uwtable
define linkonce_odr hidden noundef i64 @_ZNK5boost4core17basic_string_viewIcE4sizeEv(ptr noundef nonnull align 8 dereferenceable(16) %0) #1 comdat align 2 {
  %2 = alloca ptr, align 8
  store ptr %0, ptr %2, align 8, !tbaa !3
  %3 = load ptr, ptr %2, align 8
  %4 = getelementptr inbounds nuw %"class.boost::core::basic_string_view", ptr %3, i32 0, i32 1
  %5 = load i64, ptr %4, align 8, !tbaa !20
  ret i64 %5
}

; Function Attrs: mustprogress nounwind uwtable
define linkonce_odr hidden noundef ptr @_ZNK5boost4core17basic_string_viewIcE4dataEv(ptr noundef nonnull align 8 dereferenceable(16) %0) #1 comdat align 2 {
  %2 = alloca ptr, align 8
  store ptr %0, ptr %2, align 8, !tbaa !3
  %3 = load ptr, ptr %2, align 8
  %4 = getelementptr inbounds nuw %"class.boost::core::basic_string_view", ptr %3, i32 0, i32 0
  %5 = load ptr, ptr %4, align 8, !tbaa !37
  ret ptr %5
}

; Function Attrs: mustprogress nounwind uwtable
define { ptr, i64 } @_ZNK5boost4urls6detail8url_impl3getEi(ptr noundef nonnull align 8 dereferenceable(171) %0, i32 noundef %1) #1 align 2 {
  %3 = alloca %"class.boost::core::basic_string_view", align 8
  %4 = alloca ptr, align 8
  %5 = alloca i32, align 4
  store ptr %0, ptr %4, align 8, !tbaa !3
  store i32 %1, ptr %5, align 4, !tbaa !16
  %6 = load ptr, ptr %4, align 8
  %7 = getelementptr inbounds nuw %"struct.boost::urls::detail::url_impl", ptr %6, i32 0, i32 0
  %8 = load ptr, ptr %7, align 8, !tbaa !36
  %9 = load i32, ptr %5, align 4, !tbaa !16
  %10 = call noundef i64 @_ZNK5boost4urls6detail8url_impl6offsetEi(ptr noundef nonnull align 8 dereferenceable(171) %6, i32 noundef %9) #5
  %11 = getelementptr inbounds nuw i8, ptr %8, i64 %10
  %12 = load i32, ptr %5, align 4, !tbaa !16
  %13 = call noundef i64 @_ZNK5boost4urls6detail8url_impl3lenEi(ptr noundef nonnull align 8 dereferenceable(171) %6, i32 noundef %12) #5
  call void @_ZN5boost4core17basic_string_viewIcEC2EPKcm(ptr noundef nonnull align 8 dereferenceable(16) %3, ptr noundef %11, i64 noundef %13) #5
  %14 = load { ptr, i64 }, ptr %3, align 8
  ret { ptr, i64 } %14
}

; Function Attrs: mustprogress nounwind uwtable
define hidden void @_ZN5boost4urls6detail8path_refC2ERKNS1_8url_implE(ptr noundef nonnull align 8 dereferenceable(40) %0, ptr noundef nonnull align 8 dereferenceable(171) %1) unnamed_addr #1 align 2 {
  %3 = alloca ptr, align 8
  %4 = alloca ptr, align 8
  %5 = alloca %"class.boost::core::basic_string_view", align 8
  store ptr %0, ptr %3, align 8, !tbaa !3
  store ptr %1, ptr %4, align 8, !tbaa !3
  %6 = load ptr, ptr %3, align 8
  %7 = getelementptr inbounds nuw %"class.boost::urls::detail::path_ref", ptr %6, i32 0, i32 0
  store ptr null, ptr %7, align 8, !tbaa !42
  %8 = getelementptr inbounds nuw %"class.boost::urls::detail::path_ref", ptr %6, i32 0, i32 1
  store ptr null, ptr %8, align 8, !tbaa !44
  %9 = getelementptr inbounds nuw %"class.boost::urls::detail::path_ref", ptr %6, i32 0, i32 2
  store i64 0, ptr %9, align 8, !tbaa !45
  %10 = getelementptr inbounds nuw %"class.boost::urls::detail::path_ref", ptr %6, i32 0, i32 3
  store i64 0, ptr %10, align 8, !tbaa !46
  %11 = getelementptr inbounds nuw %"class.boost::urls::detail::path_ref", ptr %6, i32 0, i32 4
  store i64 0, ptr %11, align 8, !tbaa !47
  %12 = load ptr, ptr %4, align 8, !tbaa !3
  %13 = getelementptr inbounds nuw %"struct.boost::urls::detail::url_impl", ptr %12, i32 0, i32 10
  %14 = load i8, ptr %13, align 2, !tbaa !29
  %15 = icmp eq i8 %14, 1
  br i1 %15, label %16, label %19

16:                                               ; preds = %2
  %17 = load ptr, ptr %4, align 8, !tbaa !3
  %18 = getelementptr inbounds nuw %"class.boost::urls::detail::path_ref", ptr %6, i32 0, i32 0
  store ptr %17, ptr %18, align 8, !tbaa !42
  br label %39

19:                                               ; preds = %2
  call void @llvm.lifetime.start.p0(i64 16, ptr %5) #5
  %20 = load ptr, ptr %4, align 8, !tbaa !3
  %21 = call { ptr, i64 } @_ZNK5boost4urls6detail8url_impl3getEi(ptr noundef nonnull align 8 dereferenceable(171) %20, i32 noundef 4) #5
  %22 = getelementptr inbounds nuw { ptr, i64 }, ptr %5, i32 0, i32 0
  %23 = extractvalue { ptr, i64 } %21, 0
  store ptr %23, ptr %22, align 8
  %24 = getelementptr inbounds nuw { ptr, i64 }, ptr %5, i32 0, i32 1
  %25 = extractvalue { ptr, i64 } %21, 1
  store i64 %25, ptr %24, align 8
  %26 = call noundef ptr @_ZNK5boost4core17basic_string_viewIcE4dataEv(ptr noundef nonnull align 8 dereferenceable(16) %5) #5
  %27 = getelementptr inbounds nuw %"class.boost::urls::detail::path_ref", ptr %6, i32 0, i32 1
  store ptr %26, ptr %27, align 8, !tbaa !44
  %28 = call noundef i64 @_ZNK5boost4core17basic_string_viewIcE4sizeEv(ptr noundef nonnull align 8 dereferenceable(16) %5) #5
  %29 = getelementptr inbounds nuw %"class.boost::urls::detail::path_ref", ptr %6, i32 0, i32 2
  store i64 %28, ptr %29, align 8, !tbaa !45
  %30 = load ptr, ptr %4, align 8, !tbaa !3
  %31 = getelementptr inbounds nuw %"struct.boost::urls::detail::url_impl", ptr %30, i32 0, i32 3
  %32 = load i64, ptr %31, align 8, !tbaa !33
  %33 = getelementptr inbounds nuw %"class.boost::urls::detail::path_ref", ptr %6, i32 0, i32 3
  store i64 %32, ptr %33, align 8, !tbaa !46
  %34 = load ptr, ptr %4, align 8, !tbaa !3
  %35 = getelementptr inbounds nuw %"struct.boost::urls::detail::url_impl", ptr %34, i32 0, i32 2
  %36 = getelementptr inbounds [7 x i64], ptr %35, i64 0, i64 4
  %37 = load i64, ptr %36, align 8, !tbaa !8
  %38 = getelementptr inbounds nuw %"class.boost::urls::detail::path_ref", ptr %6, i32 0, i32 4
  store i64 %37, ptr %38, align 8, !tbaa !47
  call void @llvm.lifetime.end.p0(i64 16, ptr %5) #5
  br label %39

39:                                               ; preds = %19, %16
  ret void
}