; Function Attrs: mustprogress nofree norecurse nosync nounwind willreturn memory(argmem: readwrite) uwtable
define hidden void @_ZN5boost4urls6detail8path_refC2ERKNS1_8url_implE(ptr nocapture noundef nonnull writeonly align 8 dereferenceable(40) %0, ptr noundef nonnull align 8 dereferenceable(171) %1) unnamed_addr #6 align 2 {
  %3 = getelementptr inbounds nuw i8, ptr %1, i64 170
  tail call void @llvm.memset.p0.i64(ptr noundef nonnull align 8 dereferenceable(40) %0, i8 0, i64 40, i1 false)
  %4 = load i8, ptr %3, align 2, !tbaa !23
  %5 = icmp eq i8 %4, 1
  br i1 %5, label %6, label %7

6:                                                ; preds = %2
  store ptr %1, ptr %0, align 8, !tbaa !43
  br label %23

7:                                                ; preds = %2
  %8 = getelementptr inbounds nuw i8, ptr %0, i64 32
  %9 = getelementptr inbounds nuw i8, ptr %0, i64 24
  %10 = getelementptr inbounds nuw i8, ptr %0, i64 16
  %11 = getelementptr inbounds nuw i8, ptr %0, i64 8
  %12 = load ptr, ptr %1, align 8, !tbaa !31
  %13 = getelementptr inbounds i8, ptr %1, i64 40
  %14 = load i64, ptr %13, align 8, !tbaa !13
  %15 = getelementptr inbounds nuw i8, ptr %12, i64 %14
  %16 = getelementptr inbounds i8, ptr %1, i64 48
  %17 = load i64, ptr %16, align 8, !tbaa !13
  %18 = sub i64 %17, %14
  store ptr %15, ptr %11, align 8, !tbaa !45
  store i64 %18, ptr %10, align 8, !tbaa !46
  %19 = getelementptr inbounds nuw i8, ptr %1, i64 128
  %20 = load i64, ptr %19, align 8, !tbaa !29
  store i64 %20, ptr %9, align 8, !tbaa !47
  %21 = getelementptr inbounds i8, ptr %1, i64 104
  %22 = load i64, ptr %21, align 8, !tbaa !13
  store i64 %22, ptr %8, align 8, !tbaa !48
  br label %23

23:                                               ; preds = %7, %6
  ret void
}